; Function Attrs: null_pointer_is_valid sspstrong uwtable
define void @free_srt_table(ptr noundef captures(none) %0, ptr noundef %1) local_unnamed_addr #2 {
  %3 = getelementptr inbounds nuw i8, ptr %1, i64 8
  %4 = load i32, ptr %3, align 8
  %.not = icmp eq i32 %4, 0
  br i1 %.not, label %._crit_edge, label %.lr.ph

.lr.ph:                                           ; preds = %2, %free_srt_table_data.exit
  %indvars.iv = phi i64 [ %indvars.iv.next, %free_srt_table_data.exit ], [ 0, %2 ]
  %5 = load ptr, ptr %1, align 8
  %6 = getelementptr ptr, ptr %5, i64 %indvars.iv
  %7 = load ptr, ptr %6, align 8
  %8 = getelementptr inbounds nuw i8, ptr %7, i64 24
  %9 = load i32, ptr %8, align 8
  %10 = icmp sgt i32 %9, 0
  br i1 %10, label %.lr.ph.i, label %free_srt_table_data.exit

.lr.ph.i:                                         ; preds = %.lr.ph
  %11 = getelementptr inbounds nuw i8, ptr %7, i64 40
  br label %12

12:                                               ; preds = %12, %.lr.ph.i
  %indvars.iv.i = phi i64 [ 0, %.lr.ph.i ], [ %indvars.iv.next.i, %12 ]
  %13 = load ptr, ptr %11, align 8
  %14 = getelementptr %struct._srt_procedure_t, ptr %13, i64 %indvars.iv.i, i32 2
  %15 = load ptr, ptr %14, align 8
  tail call void @g_free(ptr noundef %15)
  %16 = load ptr, ptr %11, align 8
  %17 = getelementptr %struct._srt_procedure_t, ptr %16, i64 %indvars.iv.i, i32 2
  store ptr null, ptr %17, align 8
  %indvars.iv.next.i = add nuw nsw i64 %indvars.iv.i, 1
  %18 = load i32, ptr %8, align 8
  %19 = sext i32 %18 to i64
  %20 = icmp slt i64 %indvars.iv.next.i, %19
  br i1 %20, label %12, label %free_srt_table_data.exit, !llvm.loop !6

free_srt_table_data.exit:                         ; preds = %12, %.lr.ph
  %21 = getelementptr inbounds nuw i8, ptr %7, i64 16
  %22 = load ptr, ptr %21, align 8
  tail call void @g_free(ptr noundef %22)
  store ptr null, ptr %21, align 8
  %23 = getelementptr inbounds nuw i8, ptr %7, i64 40
  %24 = load ptr, ptr %23, align 8
  tail call void @g_free(ptr noundef %24)
  store ptr null, ptr %23, align 8
  store i32 0, ptr %8, align 8
  tail call void @g_free(ptr noundef %7)
  %indvars.iv.next = add nuw nsw i64 %indvars.iv, 1
  %25 = load i32, ptr %3, align 8
  %26 = zext i32 %25 to i64
  %27 = icmp samesign ult i64 %indvars.iv.next, %26
  br i1 %27, label %.lr.ph, label %._crit_edge, !llvm.loop !8

._crit_edge:                                      ; preds = %free_srt_table_data.exit, %2
  %28 = tail call ptr @g_array_set_size(ptr noundef %1, i32 noundef 0)
  %29 = getelementptr inbounds nuw i8, ptr %0, i64 48
  %30 = load ptr, ptr %29, align 8
  tail call void @g_free(ptr noundef %30)
  store ptr null, ptr %29, align 8
  ret void
}